; ModuleID = '52/5970.cpp'
source_filename = "52/5970.cpp"
target datalayout = "e-m:e-p270:32:32-p271:32:32-p272:64:64-i64:64-f80:128-n8:16:32:64-S128"
target triple = "x86_64-pc-linux-gnu"

%"class.std::ios_base::Init" = type { i8 }
%"class.std::basic_istream" = type { i32 (...)**, i64, %"class.std::basic_ios" }
%"class.std::basic_ios" = type { %"class.std::ios_base", %"class.std::basic_ostream"*, i8, i8, %"class.std::basic_streambuf"*, %"class.std::ctype"*, %"class.std::num_put"*, %"class.std::num_get"* }
%"class.std::ios_base" = type { i32 (...)**, i64, i64, i32, i32, i32, %"struct.std::ios_base::_Callback_list"*, %"struct.std::ios_base::_Words", [8 x %"struct.std::ios_base::_Words"], i32, %"struct.std::ios_base::_Words"*, %"class.std::locale" }
%"struct.std::ios_base::_Callback_list" = type { %"struct.std::ios_base::_Callback_list"*, void (i32, %"class.std::ios_base"*, i32)*, i32, i32 }
%"struct.std::ios_base::_Words" = type { i8*, i64 }
%"class.std::locale" = type { %"class.std::locale::_Impl"* }
%"class.std::locale::_Impl" = type { i32, %"class.std::locale::facet"**, i64, %"class.std::locale::facet"**, i8** }
%"class.std::locale::facet" = type <{ i32 (...)**, i32, [4 x i8] }>
%"class.std::basic_ostream" = type { i32 (...)**, %"class.std::basic_ios" }
%"class.std::basic_streambuf" = type { i32 (...)**, i8*, i8*, i8*, i8*, i8*, i8*, %"class.std::locale" }
%"class.std::ctype" = type <{ %"class.std::locale::facet.base", [4 x i8], %struct.__locale_struct*, i8, [7 x i8], i32*, i32*, i16*, i8, [256 x i8], [256 x i8], i8, [6 x i8] }>
%"class.std::locale::facet.base" = type <{ i32 (...)**, i32 }>
%struct.__locale_struct = type { [13 x %struct.__locale_data*], i16*, i32*, i32*, [13 x i8*] }
%struct.__locale_data = type opaque
%"class.std::num_put" = type { %"class.std::locale::facet.base", [4 x i8] }
%"class.std::num_get" = type { %"class.std::locale::facet.base", [4 x i8] }

@_ZStL8__ioinit = internal global %"class.std::ios_base::Init" zeroinitializer, align 1
@__dso_handle = external hidden global i8
@_ZSt3cin = external dso_local global %"class.std::basic_istream", align 8
@_ZSt4cout = external dso_local global %"class.std::basic_ostream", align 8
@.str = private unnamed_addr constant [2 x i8] c" \00", align 1
@llvm.global_ctors = appending global [1 x { i32, void ()*, i8* }] [{ i32, void ()*, i8* } { i32 65535, void ()* @_GLOBAL__sub_I_5970.cpp, i8* null }]

; Function Attrs: noinline uwtable
define internal void @__cxx_global_var_init() #0 section ".text.startup" {
  call void @_ZNSt8ios_base4InitC1Ev(%"class.std::ios_base::Init"* @_ZStL8__ioinit)
  %1 = call i32 @__cxa_atexit(void (i8*)* bitcast (void (%"class.std::ios_base::Init"*)* @_ZNSt8ios_base4InitD1Ev to void (i8*)*), i8* getelementptr inbounds (%"class.std::ios_base::Init", %"class.std::ios_base::Init"* @_ZStL8__ioinit, i32 0, i32 0), i8* @__dso_handle) #3
  ret void
}

declare dso_local void @_ZNSt8ios_base4InitC1Ev(%"class.std::ios_base::Init"*) unnamed_addr #1

; Function Attrs: nounwind
declare dso_local void @_ZNSt8ios_base4InitD1Ev(%"class.std::ios_base::Init"*) unnamed_addr #2

; Function Attrs: nounwind
declare dso_local i32 @__cxa_atexit(void (i8*)*, i8*, i8*) #3

; Function Attrs: noinline norecurse uwtable
define dso_local i32 @main() #4 {
  %1 = alloca i32, align 4
  %2 = alloca [105 x i32], align 16
  %3 = alloca i32, align 4
  %4 = alloca i32, align 4
  %5 = alloca i32, align 4
  %6 = alloca i32, align 4
  %7 = alloca i32, align 4
  %8 = alloca i32*, align 8
  store i32 0, i32* %1, align 4
  %9 = getelementptr inbounds [105 x i32], [105 x i32]* %2, i64 0, i64 0
  store i32* %9, i32** %8, align 8
  %10 = call dereferenceable(280) %"class.std::basic_istream"* @_ZNSirsERi(%"class.std::basic_istream"* @_ZSt3cin, i32* dereferenceable(4) %3)
  %11 = call dereferenceable(280) %"class.std::basic_istream"* @_ZNSirsERi(%"class.std::basic_istream"* %10, i32* dereferenceable(4) %4)
  store i32 0, i32* %5, align 4
  br label %12

12:                                               ; preds = %22, %0
  %13 = load i32, i32* %5, align 4
  %14 = load i32, i32* %3, align 4
  %15 = sub nsw i32 %14, 1
  %16 = icmp sle i32 %13, %15
  br i1 %16, label %17, label %25

17:                                               ; preds = %12
  %18 = load i32, i32* %5, align 4
  %19 = sext i32 %18 to i64
  %20 = getelementptr inbounds [105 x i32], [105 x i32]* %2, i64 0, i64 %19
  %21 = call dereferenceable(280) %"class.std::basic_istream"* @_ZNSirsERi(%"class.std::basic_istream"* @_ZSt3cin, i32* dereferenceable(4) %20)
  br label %22

22:                                               ; preds = %17
  %23 = load i32, i32* %5, align 4
  %24 = add nsw i32 %23, 1
  store i32 %24, i32* %5, align 4
  br label %12

25:                                               ; preds = %12
  store i32 1, i32* %5, align 4
  br label %26

26:                                               ; preds = %59, %25
  %27 = load i32, i32* %5, align 4
  %28 = load i32, i32* %4, align 4
  %29 = icmp sle i32 %27, %28
  br i1 %29, label %30, label %62

30:                                               ; preds = %26
  %31 = load i32*, i32** %8, align 8
  %32 = load i32, i32* %3, align 4
  %33 = sext i32 %32 to i64
  %34 = getelementptr inbounds i32, i32* %31, i64 %33
  %35 = getelementptr inbounds i32, i32* %34, i64 -1
  %36 = load i32, i32* %35, align 4
  store i32 %36, i32* %7, align 4
  %37 = load i32, i32* %3, align 4
  %38 = sub nsw i32 %37, 2
  store i32 %38, i32* %6, align 4
  br label %39

39:                                               ; preds = %53, %30
  %40 = load i32, i32* %6, align 4
  %41 = icmp sge i32 %40, 0
  br i1 %41, label %42, label %56

42:                                               ; preds = %39
  %43 = load i32*, i32** %8, align 8
  %44 = load i32, i32* %6, align 4
  %45 = sext i32 %44 to i64
  %46 = getelementptr inbounds i32, i32* %43, i64 %45
  %47 = load i32, i32* %46, align 4
  %48 = load i32*, i32** %8, align 8
  %49 = load i32, i32* %6, align 4
  %50 = sext i32 %49 to i64
  %51 = getelementptr inbounds i32, i32* %48, i64 %50
  %52 = getelementptr inbounds i32, i32* %51, i64 1
  store i32 %47, i32* %52, align 4
  br label %53

53:                                               ; preds = %42
  %54 = load i32, i32* %6, align 4
  %55 = add nsw i32 %54, -1
  store i32 %55, i32* %6, align 4
  br label %39

56:                                               ; preds = %39
  %57 = load i32, i32* %7, align 4
  %58 = load i32*, i32** %8, align 8
  store i32 %57, i32* %58, align 4
  br label %59

59:                                               ; preds = %56
  %60 = load i32, i32* %5, align 4
  %61 = add nsw i32 %60, 1
  store i32 %61, i32* %5, align 4
  br label %26

62:                                               ; preds = %26
  store i32 0, i32* %5, align 4
  br label %63

63:                                               ; preds = %87, %62
  %64 = load i32, i32* %5, align 4
  %65 = load i32, i32* %3, align 4
  %66 = sub nsw i32 %65, 1
  %67 = icmp sle i32 %64, %66
  br i1 %67, label %68, label %90

68:                                               ; preds = %63
  %69 = load i32, i32* %5, align 4
  %70 = load i32, i32* %3, align 4
  %71 = sub nsw i32 %70, 1
  %72 = icmp ne i32 %69, %71
  br i1 %72, label %73, label %80

73:                                               ; preds = %68
  %74 = load i32, i32* %5, align 4
  %75 = sext i32 %74 to i64
  %76 = getelementptr inbounds [105 x i32], [105 x i32]* %2, i64 0, i64 %75
  %77 = load i32, i32* %76, align 4
  %78 = call dereferenceable(272) %"class.std::basic_ostream"* @_ZNSolsEi(%"class.std::basic_ostream"* @_ZSt4cout, i32 %77)
  %79 = call dereferenceable(272) %"class.std::basic_ostream"* @_ZStlsISt11char_traitsIcEERSt13basic_ostreamIcT_ES5_PKc(%"class.std::basic_ostream"* dereferenceable(272) %78, i8* getelementptr inbounds ([2 x i8], [2 x i8]* @.str, i64 0, i64 0))
  br label %86

80:                                               ; preds = %68
  %81 = load i32, i32* %5, align 4
  %82 = sext i32 %81 to i64
  %83 = getelementptr inbounds [105 x i32], [105 x i32]* %2, i64 0, i64 %82
  %84 = load i32, i32* %83, align 4
  %85 = call dereferenceable(272) %"class.std::basic_ostream"* @_ZNSolsEi(%"class.std::basic_ostream"* @_ZSt4cout, i32 %84)
  br label %86

86:                                               ; preds = %80, %73
  br label %87

87:                                               ; preds = %86
  %88 = load i32, i32* %5, align 4
  %89 = add nsw i32 %88, 1
  store i32 %89, i32* %5, align 4
  br label %63

90:                                               ; preds = %63
  ret i32 0
}

declare dso_local dereferenceable(280) %"class.std::basic_istream"* @_ZNSirsERi(%"class.std::basic_istream"*, i32* dereferenceable(4)) #1

declare dso_local dereferenceable(272) %"class.std::basic_ostream"* @_ZStlsISt11char_traitsIcEERSt13basic_ostreamIcT_ES5_PKc(%"class.std::basic_ostream"* dereferenceable(272), i8*) #1

declare dso_local dereferenceable(272) %"class.std::basic_ostream"* @_ZNSolsEi(%"class.std::basic_ostream"*, i32) #1

; Function Attrs: noinline uwtable
define internal void @_GLOBAL__sub_I_5970.cpp() #0 section ".text.startup" {
  call void @__cxx_global_var_init()
  ret void
}


!llvm.module.flags = !{!0}
!llvm.ident = !{!1}

!0 = !{i32 1, !"wchar_size", i32 4}
!1 = !{!"clang version 10.0.0-4ubuntu1 "}
